target datalayout = "e-m:e-p270:32:32-p271:32:32-p272:64:64-i64:64-i128:128-f80:128-n8:16:32:64-S128"
target triple = "x86_64-pc-linux-gnu"

%class.XMMRegister = type { i32 }
%class.KRegister = type { i32 }

@g_assert_poison = external global ptr, align 8
@.str = private unnamed_addr constant [43 x i8] c"src/hotspot/cpu/x86/macroAssembler_x86.cpp\00", align 1
@.str.41 = private unnamed_addr constant [28 x i8] c"Unexpected type argument %s\00", align 1

; Function Attrs: mustprogress nounwind uwtable
define hidden void @_ZN14MacroAssembler7evpminsE9BasicType11XMMRegister9KRegisterS1_S1_bi(ptr noundef nonnull align 8 dereferenceable(40) %0, i8 noundef zeroext %1, i32 %2, i32 %3, i32 %4, i32 %5, i1 noundef zeroext %6, i32 noundef %7) #1 align 2 {
  %9 = alloca %class.XMMRegister, align 4
  %10 = alloca %class.KRegister, align 4
  %11 = alloca %class.XMMRegister, align 4
  %12 = alloca %class.XMMRegister, align 4
  %13 = alloca ptr, align 8
  %14 = alloca i8, align 1
  %15 = alloca i8, align 1
  %16 = alloca i32, align 4
  %17 = alloca %class.XMMRegister, align 4
  %18 = alloca %class.KRegister, align 4
  %19 = alloca %class.XMMRegister, align 4
  %20 = alloca %class.XMMRegister, align 4
  %21 = alloca %class.XMMRegister, align 4
  %22 = alloca %class.KRegister, align 4
  %23 = alloca %class.XMMRegister, align 4
  %24 = alloca %class.XMMRegister, align 4
  %25 = alloca %class.XMMRegister, align 4
  %26 = alloca %class.KRegister, align 4
  %27 = alloca %class.XMMRegister, align 4
  %28 = alloca %class.XMMRegister, align 4
  %29 = alloca %class.XMMRegister, align 4
  %30 = alloca %class.KRegister, align 4
  %31 = alloca %class.XMMRegister, align 4
  %32 = alloca %class.XMMRegister, align 4
  %33 = getelementptr inbounds %class.XMMRegister, ptr %9, i32 0, i32 0
  store i32 %2, ptr %33, align 4
  %34 = getelementptr inbounds %class.KRegister, ptr %10, i32 0, i32 0
  store i32 %3, ptr %34, align 4
  %35 = getelementptr inbounds %class.XMMRegister, ptr %11, i32 0, i32 0
  store i32 %4, ptr %35, align 4
  %36 = getelementptr inbounds %class.XMMRegister, ptr %12, i32 0, i32 0
  store i32 %5, ptr %36, align 4
  store ptr %0, ptr %13, align 8
  store i8 %1, ptr %14, align 1
  %37 = zext i1 %6 to i8
  store i8 %37, ptr %15, align 1
  store i32 %7, ptr %16, align 4
  %38 = load ptr, ptr %13, align 8
  %39 = load i8, ptr %14, align 1
  %40 = zext i8 %39 to i32
  switch i32 %40, label %89 [
    i32 8, label %41
    i32 9, label %53
    i32 10, label %65
    i32 11, label %77
  ]

41:                                               ; preds = %8
  call void @llvm.memcpy.p0.p0.i64(ptr align 4 %17, ptr align 4 %9, i64 4, i1 false)
  call void @llvm.memcpy.p0.p0.i64(ptr align 4 %18, ptr align 4 %10, i64 4, i1 false)
  call void @llvm.memcpy.p0.p0.i64(ptr align 4 %19, ptr align 4 %11, i64 4, i1 false)
  call void @llvm.memcpy.p0.p0.i64(ptr align 4 %20, ptr align 4 %12, i64 4, i1 false)
  %42 = load i8, ptr %15, align 1
  %43 = trunc i8 %42 to i1
  %44 = load i32, ptr %16, align 4
  %45 = getelementptr inbounds %class.XMMRegister, ptr %17, i32 0, i32 0
  %46 = load i32, ptr %45, align 4
  %47 = getelementptr inbounds %class.KRegister, ptr %18, i32 0, i32 0
  %48 = load i32, ptr %47, align 4
  %49 = getelementptr inbounds %class.XMMRegister, ptr %19, i32 0, i32 0
  %50 = load i32, ptr %49, align 4
  %51 = getelementptr inbounds %class.XMMRegister, ptr %20, i32 0, i32 0
  %52 = load i32, ptr %51, align 4
  call void @_ZN9Assembler8evpminsbE11XMMRegister9KRegisterS0_S0_bi(ptr noundef nonnull align 8 dereferenceable(40) %38, i32 %46, i32 %48, i32 %50, i32 %52, i1 noundef zeroext %43, i32 noundef %44)
  br label %95

53:                                               ; preds = %8
  call void @llvm.memcpy.p0.p0.i64(ptr align 4 %21, ptr align 4 %9, i64 4, i1 false)
  call void @llvm.memcpy.p0.p0.i64(ptr align 4 %22, ptr align 4 %10, i64 4, i1 false)
  call void @llvm.memcpy.p0.p0.i64(ptr align 4 %23, ptr align 4 %11, i64 4, i1 false)
  call void @llvm.memcpy.p0.p0.i64(ptr align 4 %24, ptr align 4 %12, i64 4, i1 false)
  %54 = load i8, ptr %15, align 1
  %55 = trunc i8 %54 to i1
  %56 = load i32, ptr %16, align 4
  %57 = getelementptr inbounds %class.XMMRegister, ptr %21, i32 0, i32 0
  %58 = load i32, ptr %57, align 4
  %59 = getelementptr inbounds %class.KRegister, ptr %22, i32 0, i32 0
  %60 = load i32, ptr %59, align 4
  %61 = getelementptr inbounds %class.XMMRegister, ptr %23, i32 0, i32 0
  %62 = load i32, ptr %61, align 4
  %63 = getelementptr inbounds %class.XMMRegister, ptr %24, i32 0, i32 0
  %64 = load i32, ptr %63, align 4
  call void @_ZN9Assembler8evpminswE11XMMRegister9KRegisterS0_S0_bi(ptr noundef nonnull align 8 dereferenceable(40) %38, i32 %58, i32 %60, i32 %62, i32 %64, i1 noundef zeroext %55, i32 noundef %56)
  br label %95

65:                                               ; preds = %8
  call void @llvm.memcpy.p0.p0.i64(ptr align 4 %25, ptr align 4 %9, i64 4, i1 false)
  call void @llvm.memcpy.p0.p0.i64(ptr align 4 %26, ptr align 4 %10, i64 4, i1 false)
  call void @llvm.memcpy.p0.p0.i64(ptr align 4 %27, ptr align 4 %11, i64 4, i1 false)
  call void @llvm.memcpy.p0.p0.i64(ptr align 4 %28, ptr align 4 %12, i64 4, i1 false)
  %66 = load i8, ptr %15, align 1
  %67 = trunc i8 %66 to i1
  %68 = load i32, ptr %16, align 4
  %69 = getelementptr inbounds %class.XMMRegister, ptr %25, i32 0, i32 0
  %70 = load i32, ptr %69, align 4
  %71 = getelementptr inbounds %class.KRegister, ptr %26, i32 0, i32 0
  %72 = load i32, ptr %71, align 4
  %73 = getelementptr inbounds %class.XMMRegister, ptr %27, i32 0, i32 0
  %74 = load i32, ptr %73, align 4
  %75 = getelementptr inbounds %class.XMMRegister, ptr %28, i32 0, i32 0
  %76 = load i32, ptr %75, align 4
  call void @_ZN9Assembler8evpminsdE11XMMRegister9KRegisterS0_S0_bi(ptr noundef nonnull align 8 dereferenceable(40) %38, i32 %70, i32 %72, i32 %74, i32 %76, i1 noundef zeroext %67, i32 noundef %68)
  br label %95

77:                                               ; preds = %8
  call void @llvm.memcpy.p0.p0.i64(ptr align 4 %29, ptr align 4 %9, i64 4, i1 false)
  call void @llvm.memcpy.p0.p0.i64(ptr align 4 %30, ptr align 4 %10, i64 4, i1 false)
  call void @llvm.memcpy.p0.p0.i64(ptr align 4 %31, ptr align 4 %11, i64 4, i1 false)
  call void @llvm.memcpy.p0.p0.i64(ptr align 4 %32, ptr align 4 %12, i64 4, i1 false)
  %78 = load i8, ptr %15, align 1
  %79 = trunc i8 %78 to i1
  %80 = load i32, ptr %16, align 4
  %81 = getelementptr inbounds %class.XMMRegister, ptr %29, i32 0, i32 0
  %82 = load i32, ptr %81, align 4
  %83 = getelementptr inbounds %class.KRegister, ptr %30, i32 0, i32 0
  %84 = load i32, ptr %83, align 4
  %85 = getelementptr inbounds %class.XMMRegister, ptr %31, i32 0, i32 0
  %86 = load i32, ptr %85, align 4
  %87 = getelementptr inbounds %class.XMMRegister, ptr %32, i32 0, i32 0
  %88 = load i32, ptr %87, align 4
  call void @_ZN9Assembler8evpminsqE11XMMRegister9KRegisterS0_S0_bi(ptr noundef nonnull align 8 dereferenceable(40) %38, i32 %82, i32 %84, i32 %86, i32 %88, i1 noundef zeroext %79, i32 noundef %80)
  br label %95

89:                                               ; preds = %8
  br label %90

90:                                               ; preds = %89
  %91 = load ptr, ptr @g_assert_poison, align 8
  store i8 88, ptr %91, align 1
  %92 = load i8, ptr %14, align 1
  %93 = call noundef ptr @_Z9type2name9BasicType(i8 noundef zeroext %92)
  call void (i32, ptr, i32, ptr, ...) @_Z12report_fatal11VMErrorTypePKciS1_z(i32 noundef -536870912, ptr noundef @.str, i32 noundef 9538, ptr noundef @.str.41, ptr noundef %93) #8
  unreachable

94:                                               ; No predecessors!
  br label %95

95:                                               ; preds = %94, %77, %65, %53, %41
  ret void
}