; Function Attrs: mustprogress nounwind uwtable
define hidden void @_ZN14MacroAssembler7evpminsE9BasicType11XMMRegister9KRegisterS1_S1_bi(ptr noundef nonnull align 8 dereferenceable(40) %0, i8 noundef zeroext %1, i32 %2, i32 %3, i32 %4, i32 %5, i1 noundef zeroext %6, i32 noundef %7) local_unnamed_addr #0 align 2 {
  switch i8 %1, label %13 [
    i8 8, label %9
    i8 9, label %10
    i8 10, label %11
    i8 11, label %12
  ]

9:                                                ; preds = %8
  tail call void @_ZN9Assembler8evpminsbE11XMMRegister9KRegisterS0_S0_bi(ptr noundef nonnull align 8 dereferenceable(40) %0, i32 %2, i32 %3, i32 %4, i32 %5, i1 noundef zeroext %6, i32 noundef %7) #18
  br label %16

10:                                               ; preds = %8
  tail call void @_ZN9Assembler8evpminswE11XMMRegister9KRegisterS0_S0_bi(ptr noundef nonnull align 8 dereferenceable(40) %0, i32 %2, i32 %3, i32 %4, i32 %5, i1 noundef zeroext %6, i32 noundef %7) #18
  br label %16

11:                                               ; preds = %8
  tail call void @_ZN9Assembler8evpminsdE11XMMRegister9KRegisterS0_S0_bi(ptr noundef nonnull align 8 dereferenceable(40) %0, i32 %2, i32 %3, i32 %4, i32 %5, i1 noundef zeroext %6, i32 noundef %7) #18
  br label %16

12:                                               ; preds = %8
  tail call void @_ZN9Assembler8evpminsqE11XMMRegister9KRegisterS0_S0_bi(ptr noundef nonnull align 8 dereferenceable(40) %0, i32 %2, i32 %3, i32 %4, i32 %5, i1 noundef zeroext %6, i32 noundef %7) #18
  br label %16

13:                                               ; preds = %8
  %14 = load ptr, ptr @g_assert_poison, align 8
  store i8 88, ptr %14, align 1
  %15 = tail call noundef ptr @_Z9type2name9BasicType(i8 noundef zeroext %1) #18
  tail call void (i32, ptr, i32, ptr, ...) @_Z12report_fatal11VMErrorTypePKciS1_z(i32 noundef -536870912, ptr noundef nonnull @.str, i32 noundef 9538, ptr noundef nonnull @.str.41, ptr noundef %15) #19
  unreachable

16:                                               ; preds = %12, %11, %10, %9
  ret void
}